target datalayout = "e-m:e-p270:32:32-p271:32:32-p272:64:64-i64:64-i128:128-f80:128-n8:16:32:64-S128"
target triple = "x86_64-pc-linux-gnu"

%struct.ssl_connection_st = type { %struct.ssl_st, ptr, i32, ptr, ptr, ptr, i32, ptr, i32, i32, i32, i32, %struct.OSSL_TIME, %struct.OSSL_TIME, %struct.ossl_statem_st, i32, ptr, ptr, i64, i64, i64, %struct.ossl_quic_tls_callbacks_st, ptr, ptr, %struct.anon, ptr, ptr, ptr, i32, ptr, %struct.ssl_dane_st, ptr, ptr, ptr, ptr, i32, [64 x i8], [64 x i8], [64 x i8], [64 x i8], [64 x i8], [64 x i8], [64 x i8], [64 x i8], [64 x i8], [64 x i8], [64 x i8], [64 x i8], ptr, [64 x i8], i64, i32, i64, [32 x i8], ptr, ptr, ptr, i64, ptr, [32 x i8], i64, i32, ptr, ptr, i32, i32, ptr, ptr, ptr, ptr, ptr, i64, ptr, ptr, i64, i32, i32, i32, i64, i32, i32, i64, i64, i64, %struct.anon.1, ptr, i32, ptr, ptr, ptr, i32, ptr, ptr, ptr, i32, i32, i32, i32, ptr, i64, i32, ptr, %struct.srp_ctx_st, ptr, %struct.record_layer_st, ptr, ptr, ptr, ptr, i64, i32, i32, i32, i64, i64, i64, ptr, ptr, ptr, ptr, ptr, i64, ptr, i64, ptr, i64 }
%struct.ssl_st = type { i32, ptr, ptr, ptr, %struct.CRYPTO_REF_COUNT, ptr, %struct.crypto_ex_data_st }
%struct.CRYPTO_REF_COUNT = type { i32 }
%struct.crypto_ex_data_st = type { ptr, ptr }
%struct.OSSL_TIME = type { i64 }
%struct.ossl_statem_st = type { i32, i32, i32, i32, i32, i32, i32, i32, i32, i32, i32, i32, i32, ptr, ptr, ptr, i8 }
%struct.ossl_quic_tls_callbacks_st = type { ptr, ptr, ptr, ptr, ptr, ptr }
%struct.anon = type { i64, [32 x i8], [32 x i8], ptr, ptr, i32, i32, i32, i32, [2 x i8], i32, i32, i32, i32, %struct.anon.0, [64 x i8], i64, [64 x i8], i64, i32, i32, ptr, i64, ptr, i64, i32, i8, i8, i16, ptr, i16 }
%struct.anon.0 = type { [128 x i8], i64, [128 x i8], i64, i64, i32, ptr, ptr, [4 x ptr], [4 x i16], i64, i32, ptr, i64, ptr, i64, ptr, ptr, ptr, i32, i64, ptr, i32, ptr, i64, ptr, i64, ptr, i64, ptr, ptr, ptr, ptr, i64, i64, ptr, ptr, i32, i32, i32, i32 }
%struct.ssl_dane_st = type { ptr, ptr, ptr, ptr, ptr, i32, i32, i32, i64 }
%struct.anon.1 = type { [29 x i8], ptr, ptr, ptr, i32, ptr, i16, i32, %struct.anon.2, i32, i32, i64, ptr, i64, ptr, i64, ptr, i64, ptr, i64, ptr, i64, ptr, ptr, ptr, ptr, ptr, ptr, ptr, i64, ptr, i64, i32, i32, i32, i32, ptr, i64, i32, i8, i32, [4 x i32], i32, i8, i8, i8, i8 }
%struct.anon.2 = type { ptr, ptr, ptr, i64 }
%struct.srp_ctx_st = type { ptr, ptr, ptr, ptr, ptr, ptr, ptr, ptr, ptr, ptr, ptr, ptr, ptr, ptr, i32, i64 }
%struct.record_layer_st = type { ptr, ptr, ptr, ptr, ptr, ptr, ptr, ptr, i64, i32, i64, [4 x i8], i64, i64, i8, ptr, i32, ptr, ptr, ptr, i64, i64, i64, i64, [32 x %struct.tls_record_st] }
%struct.tls_record_st = type { ptr, i32, i8, ptr, ptr, i64, i64, i16, [8 x i8] }
%struct.ssl_session_st = type { i32, i64, [64 x i8], [512 x i8], i64, [32 x i8], i64, [32 x i8], ptr, ptr, i32, ptr, ptr, ptr, i64, %struct.OSSL_TIME, %struct.OSSL_TIME, %struct.OSSL_TIME, i32, ptr, i64, i32, %struct.crypto_ex_data_st, %struct.anon.5, ptr, ptr, i64, i32, ptr, ptr, ptr, %struct.CRYPTO_REF_COUNT }
%struct.anon.5 = type { ptr, ptr, i64, i64, i32, i32, ptr, i64, i8 }

; Function Attrs: nounwind uwtable
define dso_local i32 @tls13_setup_key_block(ptr noundef %0) #0 {
  %2 = alloca i32, align 4
  %3 = alloca ptr, align 8
  %4 = alloca ptr, align 8
  %5 = alloca ptr, align 8
  %6 = alloca i32, align 4
  %7 = alloca i64, align 8
  %8 = alloca i32, align 4
  store ptr %0, ptr %3, align 8, !tbaa !25
  call void @llvm.lifetime.start.p0(i64 8, ptr %4) #5
  call void @llvm.lifetime.start.p0(i64 8, ptr %5) #5
  call void @llvm.lifetime.start.p0(i64 4, ptr %6) #5
  store i32 0, ptr %6, align 4, !tbaa !15
  call void @llvm.lifetime.start.p0(i64 8, ptr %7) #5
  store i64 0, ptr %7, align 8, !tbaa !13
  %9 = load ptr, ptr %3, align 8, !tbaa !25
  %10 = getelementptr inbounds nuw %struct.ssl_connection_st, ptr %9, i32 0, i32 24
  %11 = getelementptr inbounds nuw %struct.anon, ptr %10, i32 0, i32 14
  %12 = getelementptr inbounds nuw %struct.anon.0, ptr %11, i32 0, i32 6
  %13 = load ptr, ptr %12, align 8, !tbaa !110
  %14 = load ptr, ptr %3, align 8, !tbaa !25
  %15 = getelementptr inbounds nuw %struct.ssl_connection_st, ptr %14, i32 0, i32 54
  %16 = load ptr, ptr %15, align 8, !tbaa !111
  %17 = getelementptr inbounds nuw %struct.ssl_session_st, ptr %16, i32 0, i32 19
  store ptr %13, ptr %17, align 8, !tbaa !112
  %18 = load ptr, ptr %3, align 8, !tbaa !25
  %19 = getelementptr inbounds nuw %struct.ssl_connection_st, ptr %18, i32 0, i32 0
  %20 = getelementptr inbounds nuw %struct.ssl_st, ptr %19, i32 0, i32 1
  %21 = load ptr, ptr %20, align 8, !tbaa !27
  %22 = load ptr, ptr %3, align 8, !tbaa !25
  %23 = getelementptr inbounds nuw %struct.ssl_connection_st, ptr %22, i32 0, i32 54
  %24 = load ptr, ptr %23, align 8, !tbaa !111
  %25 = call i32 @ssl_cipher_get_evp(ptr noundef %21, ptr noundef %24, ptr noundef %4, ptr noundef %5, ptr noundef %6, ptr noundef %7, ptr noundef null, i32 noundef 0)
  %26 = icmp ne i32 %25, 0
  br i1 %26, label %29, label %27

27:                                               ; preds = %1
  %28 = load ptr, ptr %3, align 8, !tbaa !25
  call void @ossl_statem_send_fatal(ptr noundef %28, i32 noundef 80)
  store i32 0, ptr %2, align 4
  store i32 1, ptr %8, align 4
  br label %60

29:                                               ; preds = %1
  %30 = load ptr, ptr %3, align 8, !tbaa !25
  %31 = getelementptr inbounds nuw %struct.ssl_connection_st, ptr %30, i32 0, i32 24
  %32 = getelementptr inbounds nuw %struct.anon, ptr %31, i32 0, i32 14
  %33 = getelementptr inbounds nuw %struct.anon.0, ptr %32, i32 0, i32 17
  %34 = load ptr, ptr %33, align 8, !tbaa !115
  call void @ssl_evp_cipher_free(ptr noundef %34)
  %35 = load ptr, ptr %4, align 8, !tbaa !116
  %36 = load ptr, ptr %3, align 8, !tbaa !25
  %37 = getelementptr inbounds nuw %struct.ssl_connection_st, ptr %36, i32 0, i32 24
  %38 = getelementptr inbounds nuw %struct.anon, ptr %37, i32 0, i32 14
  %39 = getelementptr inbounds nuw %struct.anon.0, ptr %38, i32 0, i32 17
  store ptr %35, ptr %39, align 8, !tbaa !115
  %40 = load ptr, ptr %3, align 8, !tbaa !25
  %41 = getelementptr inbounds nuw %struct.ssl_connection_st, ptr %40, i32 0, i32 24
  %42 = getelementptr inbounds nuw %struct.anon, ptr %41, i32 0, i32 14
  %43 = getelementptr inbounds nuw %struct.anon.0, ptr %42, i32 0, i32 18
  %44 = load ptr, ptr %43, align 8, !tbaa !117
  call void @ssl_evp_md_free(ptr noundef %44)
  %45 = load ptr, ptr %5, align 8, !tbaa !11
  %46 = load ptr, ptr %3, align 8, !tbaa !25
  %47 = getelementptr inbounds nuw %struct.ssl_connection_st, ptr %46, i32 0, i32 24
  %48 = getelementptr inbounds nuw %struct.anon, ptr %47, i32 0, i32 14
  %49 = getelementptr inbounds nuw %struct.anon.0, ptr %48, i32 0, i32 18
  store ptr %45, ptr %49, align 8, !tbaa !117
  %50 = load i32, ptr %6, align 4, !tbaa !15
  %51 = load ptr, ptr %3, align 8, !tbaa !25
  %52 = getelementptr inbounds nuw %struct.ssl_connection_st, ptr %51, i32 0, i32 24
  %53 = getelementptr inbounds nuw %struct.anon, ptr %52, i32 0, i32 14
  %54 = getelementptr inbounds nuw %struct.anon.0, ptr %53, i32 0, i32 19
  store i32 %50, ptr %54, align 8, !tbaa !118
  %55 = load i64, ptr %7, align 8, !tbaa !13
  %56 = load ptr, ptr %3, align 8, !tbaa !25
  %57 = getelementptr inbounds nuw %struct.ssl_connection_st, ptr %56, i32 0, i32 24
  %58 = getelementptr inbounds nuw %struct.anon, ptr %57, i32 0, i32 14
  %59 = getelementptr inbounds nuw %struct.anon.0, ptr %58, i32 0, i32 20
  store i64 %55, ptr %59, align 8, !tbaa !119
  store i32 1, ptr %2, align 4
  store i32 1, ptr %8, align 4
  br label %60

60:                                               ; preds = %29, %27
  call void @llvm.lifetime.end.p0(i64 8, ptr %7) #5
  call void @llvm.lifetime.end.p0(i64 4, ptr %6) #5
  call void @llvm.lifetime.end.p0(i64 8, ptr %5) #5
  call void @llvm.lifetime.end.p0(i64 8, ptr %4) #5
  %61 = load i32, ptr %2, align 4
  ret i32 %61
}