; Function Attrs: nounwind uwtable
define dso_local range(i32 0, 2) i32 @tls13_setup_key_block(ptr noundef %0) local_unnamed_addr #0 {
  %2 = alloca ptr, align 8
  %3 = alloca ptr, align 8
  %4 = alloca i32, align 4
  %5 = alloca i64, align 8
  call void @llvm.lifetime.start.p0(i64 8, ptr nonnull %2) #4
  call void @llvm.lifetime.start.p0(i64 8, ptr nonnull %3) #4
  call void @llvm.lifetime.start.p0(i64 4, ptr nonnull %4) #4
  store i32 0, ptr %4, align 4, !tbaa !4
  call void @llvm.lifetime.start.p0(i64 8, ptr nonnull %5) #4
  store i64 0, ptr %5, align 8, !tbaa !13
  %6 = getelementptr inbounds nuw i8, ptr %0, i64 768
  %7 = load ptr, ptr %6, align 8, !tbaa !100
  %8 = getelementptr inbounds nuw i8, ptr %0, i64 2304
  %9 = load ptr, ptr %8, align 8, !tbaa !101
  %10 = getelementptr inbounds nuw i8, ptr %9, i64 760
  store ptr %7, ptr %10, align 8, !tbaa !102
  %11 = getelementptr inbounds nuw i8, ptr %0, i64 8
  %12 = load ptr, ptr %11, align 8, !tbaa !15
  %13 = call i32 @ssl_cipher_get_evp(ptr noundef %12, ptr noundef %9, ptr noundef nonnull %2, ptr noundef nonnull %3, ptr noundef nonnull %4, ptr noundef nonnull %5, ptr noundef null, i32 noundef 0) #4
  %.not = icmp eq i32 %13, 0
  br i1 %.not, label %14, label %15

14:                                               ; preds = %1
  call void @ossl_statem_send_fatal(ptr noundef nonnull %0, i32 noundef 80) #4
  br label %26

15:                                               ; preds = %1
  %16 = getelementptr inbounds nuw i8, ptr %0, i64 880
  %17 = load ptr, ptr %16, align 8, !tbaa !105
  call void @ssl_evp_cipher_free(ptr noundef %17) #4
  %18 = load ptr, ptr %2, align 8, !tbaa !106
  store ptr %18, ptr %16, align 8, !tbaa !105
  %19 = getelementptr inbounds nuw i8, ptr %0, i64 888
  %20 = load ptr, ptr %19, align 8, !tbaa !107
  call void @ssl_evp_md_free(ptr noundef %20) #4
  %21 = load ptr, ptr %3, align 8, !tbaa !108
  store ptr %21, ptr %19, align 8, !tbaa !107
  %22 = load i32, ptr %4, align 4, !tbaa !4
  %23 = getelementptr inbounds nuw i8, ptr %0, i64 896
  store i32 %22, ptr %23, align 8, !tbaa !109
  %24 = load i64, ptr %5, align 8, !tbaa !13
  %25 = getelementptr inbounds nuw i8, ptr %0, i64 904
  store i64 %24, ptr %25, align 8, !tbaa !110
  br label %26

26:                                               ; preds = %15, %14
  %.0 = phi i32 [ 1, %15 ], [ 0, %14 ]
  call void @llvm.lifetime.end.p0(i64 8, ptr nonnull %5) #4
  call void @llvm.lifetime.end.p0(i64 4, ptr nonnull %4) #4
  call void @llvm.lifetime.end.p0(i64 8, ptr nonnull %3) #4
  call void @llvm.lifetime.end.p0(i64 8, ptr nonnull %2) #4
  ret i32 %.0
}